target datalayout = "e-m:e-p270:32:32-p271:32:32-p272:64:64-i64:64-i128:128-f80:128-n8:16:32:64-S128"
target triple = "x86_64-pc-linux-gnu"

%struct.ForEachState = type { ptr, i32 }
%struct.List = type { i32, i32, i32, ptr, [0 x %union.ListCell] }
%union.ListCell = type { ptr }
%struct.PathTarget = type { i32, ptr, ptr, %struct.QualCost, i32, i32 }
%struct.QualCost = type { double, double }

; Function Attrs: inlinehint nounwind uwtable
define internal i32 @list_length(ptr noundef %0) #4 {
  %2 = alloca ptr, align 8
  store ptr %0, ptr %2, align 8
  %3 = load ptr, ptr %2, align 8
  %4 = icmp ne ptr %3, null
  br i1 %4, label %5, label %9

5:                                                ; preds = %1
  %6 = load ptr, ptr %2, align 8
  %7 = getelementptr inbounds nuw %struct.List, ptr %6, i32 0, i32 1
  %8 = load i32, ptr %7, align 4
  br label %10

9:                                                ; preds = %1
  br label %10

10:                                               ; preds = %9, %5
  %11 = phi i32 [ %8, %5 ], [ 0, %9 ]
  ret i32 %11
}

; Function Attrs: nounwind uwtable
define dso_local void @add_column_to_pathtarget(ptr noundef %0, ptr noundef %1, i32 noundef %2) #0 {
  %4 = alloca ptr, align 8
  %5 = alloca ptr, align 8
  %6 = alloca i32, align 4
  %7 = alloca i32, align 4
  %8 = alloca i32, align 4
  store ptr %0, ptr %4, align 8
  store ptr %1, ptr %5, align 8
  store i32 %2, ptr %6, align 4
  %9 = load ptr, ptr %4, align 8
  %10 = getelementptr inbounds nuw %struct.PathTarget, ptr %9, i32 0, i32 1
  %11 = load ptr, ptr %10, align 8
  %12 = load ptr, ptr %5, align 8
  %13 = call ptr @lappend(ptr noundef %11, ptr noundef %12)
  %14 = load ptr, ptr %4, align 8
  %15 = getelementptr inbounds nuw %struct.PathTarget, ptr %14, i32 0, i32 1
  store ptr %13, ptr %15, align 8
  %16 = load ptr, ptr %4, align 8
  %17 = getelementptr inbounds nuw %struct.PathTarget, ptr %16, i32 0, i32 2
  %18 = load ptr, ptr %17, align 8
  %19 = icmp ne ptr %18, null
  br i1 %19, label %20, label %42

20:                                               ; preds = %3
  call void @llvm.lifetime.start.p0(i64 4, ptr %7) #7
  %21 = load ptr, ptr %4, align 8
  %22 = getelementptr inbounds nuw %struct.PathTarget, ptr %21, i32 0, i32 1
  %23 = load ptr, ptr %22, align 8
  %24 = call i32 @list_length(ptr noundef %23)
  store i32 %24, ptr %7, align 4
  %25 = load ptr, ptr %4, align 8
  %26 = getelementptr inbounds nuw %struct.PathTarget, ptr %25, i32 0, i32 2
  %27 = load ptr, ptr %26, align 8
  %28 = load i32, ptr %7, align 4
  %29 = sext i32 %28 to i64
  %30 = mul i64 %29, 4
  %31 = call ptr @repalloc(ptr noundef %27, i64 noundef %30)
  %32 = load ptr, ptr %4, align 8
  %33 = getelementptr inbounds nuw %struct.PathTarget, ptr %32, i32 0, i32 2
  store ptr %31, ptr %33, align 8
  %34 = load i32, ptr %6, align 4
  %35 = load ptr, ptr %4, align 8
  %36 = getelementptr inbounds nuw %struct.PathTarget, ptr %35, i32 0, i32 2
  %37 = load ptr, ptr %36, align 8
  %38 = load i32, ptr %7, align 4
  %39 = sub i32 %38, 1
  %40 = sext i32 %39 to i64
  %41 = getelementptr inbounds i32, ptr %37, i64 %40
  store i32 %34, ptr %41, align 4
  call void @llvm.lifetime.end.p0(i64 4, ptr %7) #7
  br label %65

42:                                               ; preds = %3
  %43 = load i32, ptr %6, align 4
  %44 = icmp ne i32 %43, 0
  br i1 %44, label %45, label %64

45:                                               ; preds = %42
  call void @llvm.lifetime.start.p0(i64 4, ptr %8) #7
  %46 = load ptr, ptr %4, align 8
  %47 = getelementptr inbounds nuw %struct.PathTarget, ptr %46, i32 0, i32 1
  %48 = load ptr, ptr %47, align 8
  %49 = call i32 @list_length(ptr noundef %48)
  store i32 %49, ptr %8, align 4
  %50 = load i32, ptr %8, align 4
  %51 = sext i32 %50 to i64
  %52 = mul i64 %51, 4
  %53 = call ptr @palloc0(i64 noundef %52)
  %54 = load ptr, ptr %4, align 8
  %55 = getelementptr inbounds nuw %struct.PathTarget, ptr %54, i32 0, i32 2
  store ptr %53, ptr %55, align 8
  %56 = load i32, ptr %6, align 4
  %57 = load ptr, ptr %4, align 8
  %58 = getelementptr inbounds nuw %struct.PathTarget, ptr %57, i32 0, i32 2
  %59 = load ptr, ptr %58, align 8
  %60 = load i32, ptr %8, align 4
  %61 = sub i32 %60, 1
  %62 = sext i32 %61 to i64
  %63 = getelementptr inbounds i32, ptr %59, i64 %62
  store i32 %56, ptr %63, align 4
  call void @llvm.lifetime.end.p0(i64 4, ptr %8) #7
  br label %64

64:                                               ; preds = %45, %42
  br label %65

65:                                               ; preds = %64, %20
  %66 = load ptr, ptr %4, align 8
  %67 = getelementptr inbounds nuw %struct.PathTarget, ptr %66, i32 0, i32 5
  %68 = load i32, ptr %67, align 4
  %69 = icmp eq i32 %68, 2
  br i1 %69, label %70, label %73

70:                                               ; preds = %65
  %71 = load ptr, ptr %4, align 8
  %72 = getelementptr inbounds nuw %struct.PathTarget, ptr %71, i32 0, i32 5
  store i32 0, ptr %72, align 4
  br label %73

73:                                               ; preds = %70, %65
  ret void
}

; Function Attrs: nounwind uwtable
define dso_local void @add_new_column_to_pathtarget(ptr noundef %0, ptr noundef %1) #0 {
  %3 = alloca ptr, align 8
  %4 = alloca ptr, align 8
  store ptr %0, ptr %3, align 8
  store ptr %1, ptr %4, align 8
  %5 = load ptr, ptr %3, align 8
  %6 = getelementptr inbounds nuw %struct.PathTarget, ptr %5, i32 0, i32 1
  %7 = load ptr, ptr %6, align 8
  %8 = load ptr, ptr %4, align 8
  %9 = call zeroext i1 @list_member(ptr noundef %7, ptr noundef %8)
  br i1 %9, label %13, label %10

10:                                               ; preds = %2
  %11 = load ptr, ptr %3, align 8
  %12 = load ptr, ptr %4, align 8
  call void @add_column_to_pathtarget(ptr noundef %11, ptr noundef %12, i32 noundef 0)
  br label %13

13:                                               ; preds = %10, %2
  ret void
}

; Function Attrs: nounwind uwtable
define dso_local void @add_new_columns_to_pathtarget(ptr noundef %0, ptr noundef %1) #0 {
  %3 = alloca ptr, align 8
  %4 = alloca ptr, align 8
  %5 = alloca ptr, align 8
  %6 = alloca %struct.ForEachState, align 8
  %7 = alloca ptr, align 8
  store ptr %0, ptr %3, align 8
  store ptr %1, ptr %4, align 8
  call void @llvm.lifetime.start.p0(i64 8, ptr %5) #7
  call void @llvm.lifetime.start.p0(i64 16, ptr %6) #7
  %8 = getelementptr inbounds nuw %struct.ForEachState, ptr %6, i32 0, i32 0
  %9 = load ptr, ptr %4, align 8
  store ptr %9, ptr %8, align 8
  %10 = getelementptr inbounds nuw %struct.ForEachState, ptr %6, i32 0, i32 1
  store i32 0, ptr %10, align 8
  %11 = getelementptr i8, ptr %6, i64 12
  call void @llvm.memset.p0.i64(ptr align 4 %11, i8 0, i64 4, i1 false)
  br label %12

12:                                               ; preds = %43, %2
  %13 = getelementptr inbounds nuw %struct.ForEachState, ptr %6, i32 0, i32 0
  %14 = load ptr, ptr %13, align 8
  %15 = icmp ne ptr %14, null
  br i1 %15, label %16, label %33

16:                                               ; preds = %12
  %17 = getelementptr inbounds nuw %struct.ForEachState, ptr %6, i32 0, i32 1
  %18 = load i32, ptr %17, align 8
  %19 = getelementptr inbounds nuw %struct.ForEachState, ptr %6, i32 0, i32 0
  %20 = load ptr, ptr %19, align 8
  %21 = getelementptr inbounds nuw %struct.List, ptr %20, i32 0, i32 1
  %22 = load i32, ptr %21, align 4
  %23 = icmp slt i32 %18, %22
  br i1 %23, label %24, label %33

24:                                               ; preds = %16
  %25 = getelementptr inbounds nuw %struct.ForEachState, ptr %6, i32 0, i32 0
  %26 = load ptr, ptr %25, align 8
  %27 = getelementptr inbounds nuw %struct.List, ptr %26, i32 0, i32 3
  %28 = load ptr, ptr %27, align 8
  %29 = getelementptr inbounds nuw %struct.ForEachState, ptr %6, i32 0, i32 1
  %30 = load i32, ptr %29, align 8
  %31 = sext i32 %30 to i64
  %32 = getelementptr inbounds %union.ListCell, ptr %28, i64 %31
  store ptr %32, ptr %5, align 8
  br label %34

33:                                               ; preds = %16, %12
  store ptr null, ptr %5, align 8
  br label %34

34:                                               ; preds = %33, %24
  %35 = phi i32 [ 1, %24 ], [ 0, %33 ]
  %36 = icmp ne i32 %35, 0
  br i1 %36, label %38, label %37

37:                                               ; preds = %34
  call void @llvm.lifetime.end.p0(i64 16, ptr %6) #7
  br label %47

38:                                               ; preds = %34
  call void @llvm.lifetime.start.p0(i64 8, ptr %7) #7
  %39 = load ptr, ptr %5, align 8
  %40 = load ptr, ptr %39, align 8
  store ptr %40, ptr %7, align 8
  %41 = load ptr, ptr %3, align 8
  %42 = load ptr, ptr %7, align 8
  call void @add_new_column_to_pathtarget(ptr noundef %41, ptr noundef %42)
  call void @llvm.lifetime.end.p0(i64 8, ptr %7) #7
  br label %43

43:                                               ; preds = %38
  %44 = getelementptr inbounds nuw %struct.ForEachState, ptr %6, i32 0, i32 1
  %45 = load i32, ptr %44, align 8
  %46 = add i32 %45, 1
  store i32 %46, ptr %44, align 8
  br label %12, !llvm.loop !26

47:                                               ; preds = %37
  call void @llvm.lifetime.end.p0(i64 8, ptr %5) #7
  ret void
}