; Function Attrs: nounwind uwtable
define dso_local void @add_new_columns_to_pathtarget(ptr noundef captures(none) %0, ptr noundef readonly captures(address_is_null) %1) local_unnamed_addr #0 {
  %3 = getelementptr inbounds nuw i8, ptr %1, i64 4
  %.not = icmp eq ptr %1, null
  br i1 %.not, label %._crit_edge, label %.lr.ph

.lr.ph:                                           ; preds = %2
  %4 = getelementptr inbounds nuw i8, ptr %1, i64 16
  %5 = getelementptr inbounds nuw i8, ptr %0, i64 8
  %6 = getelementptr inbounds nuw i8, ptr %0, i64 16
  %7 = getelementptr inbounds nuw i8, ptr %0, i64 44
  %8 = load i32, ptr %3, align 4
  %9 = icmp sgt i32 %8, 0
  br i1 %9, label %.lr.ph15, label %._crit_edge

._crit_edge:                                      ; preds = %add_new_column_to_pathtarget.exit, %.lr.ph, %2
  ret void

.lr.ph15:                                         ; preds = %.lr.ph, %add_new_column_to_pathtarget.exit
  %indvars.iv = phi i64 [ %indvars.iv.next, %add_new_column_to_pathtarget.exit ], [ 0, %.lr.ph ]
  %10 = load ptr, ptr %4, align 8
  %11 = getelementptr inbounds nuw %union.ListCell, ptr %10, i64 %indvars.iv
  %12 = load ptr, ptr %11, align 8
  %13 = load ptr, ptr %5, align 8
  %14 = tail call zeroext i1 @list_member(ptr noundef %13, ptr noundef %12) #10
  br i1 %14, label %add_new_column_to_pathtarget.exit, label %15

15:                                               ; preds = %.lr.ph15
  %16 = load ptr, ptr %5, align 8
  %17 = tail call ptr @lappend(ptr noundef %16, ptr noundef %12) #10
  store ptr %17, ptr %5, align 8
  %18 = load ptr, ptr %6, align 8
  %.not.i.i = icmp eq ptr %18, null
  br i1 %.not.i.i, label %30, label %19

19:                                               ; preds = %15
  %.not.i.i.i = icmp eq ptr %17, null
  br i1 %.not.i.i.i, label %list_length.exit.i.i, label %20

20:                                               ; preds = %19
  %21 = getelementptr inbounds nuw i8, ptr %17, i64 4
  %22 = load i32, ptr %21, align 4
  br label %list_length.exit.i.i

list_length.exit.i.i:                             ; preds = %20, %19
  %23 = phi i32 [ %22, %20 ], [ 0, %19 ]
  %24 = sext i32 %23 to i64
  %25 = shl nsw i64 %24, 2
  %26 = tail call ptr @repalloc(ptr noundef nonnull %18, i64 noundef %25) #10
  store ptr %26, ptr %6, align 8
  %27 = add i32 %23, -1
  %28 = sext i32 %27 to i64
  %29 = getelementptr inbounds i32, ptr %26, i64 %28
  store i32 0, ptr %29, align 4
  br label %30

30:                                               ; preds = %list_length.exit.i.i, %15
  %31 = load i32, ptr %7, align 4
  %32 = icmp eq i32 %31, 2
  br i1 %32, label %33, label %add_new_column_to_pathtarget.exit

33:                                               ; preds = %30
  store i32 0, ptr %7, align 4
  br label %add_new_column_to_pathtarget.exit

add_new_column_to_pathtarget.exit:                ; preds = %.lr.ph15, %30, %33
  %indvars.iv.next = add nuw nsw i64 %indvars.iv, 1
  %34 = load i32, ptr %3, align 4
  %35 = sext i32 %34 to i64
  %36 = icmp slt i64 %indvars.iv.next, %35
  br i1 %36, label %.lr.ph15, label %._crit_edge
}